; Function Attrs: mustprogress nounwind uwtable
define void @_ZN11OpenImageIO6v3_1_03pvt6TagMapD2Ev(ptr noundef nonnull align 8 dereferenceable(8) %0) unnamed_addr #7 align 2 personality ptr @__gxx_personality_v0 {
  %2 = load ptr, ptr %0, align 8, !tbaa !11
  %.not.i = icmp eq ptr %2, null
  br i1 %.not.i, label %_ZNSt10unique_ptrIN11OpenImageIO6v3_1_03pvt6TagMap4ImplESt14default_deleteIS4_EED2Ev.exit, label %3

3:                                                ; preds = %1
  tail call void @_ZNKSt14default_deleteIN11OpenImageIO6v3_1_03pvt6TagMap4ImplEEclEPS4_(ptr noundef nonnull align 8 dereferenceable(8) %0, ptr noundef nonnull %2)
  br label %_ZNSt10unique_ptrIN11OpenImageIO6v3_1_03pvt6TagMap4ImplESt14default_deleteIS4_EED2Ev.exit

_ZNSt10unique_ptrIN11OpenImageIO6v3_1_03pvt6TagMap4ImplESt14default_deleteIS4_EED2Ev.exit: ; preds = %1, %3
  store ptr null, ptr %0, align 8, !tbaa !11
  ret void
}